; Function Attrs: mustprogress nofree norecurse nosync nounwind willreturn memory(write, argmem: readwrite, inaccessiblemem: none) uwtable
define void @_ZN5faiss16ZnSphereCodecRec10set_nv_cumEiiim(ptr noundef nonnull readonly align 8 captures(none) dereferenceable(112) %0, i32 noundef %1, i32 noundef %2, i32 noundef %3, i64 noundef %4) local_unnamed_addr #20 align 2 {
  %6 = getelementptr inbounds nuw i8, ptr %0, i64 56
  %7 = getelementptr inbounds nuw i8, ptr %0, i64 20
  %8 = load i32, ptr %7, align 4, !tbaa !46
  %9 = add nsw i32 %8, 1
  %10 = mul nsw i32 %9, %1
  %11 = add nsw i32 %10, %2
  %12 = mul nsw i32 %11, %9
  %13 = add nsw i32 %12, %3
  %14 = sext i32 %13 to i64
  %15 = load ptr, ptr %6, align 8, !tbaa !69
  %16 = getelementptr inbounds nuw i64, ptr %15, i64 %14
  store i64 %4, ptr %16, align 8, !tbaa !44
  ret void
}